; Function Attrs: nofree norecurse nosync nounwind memory(readwrite, inaccessiblemem: none) uwtable
define dso_local i64 @gtsquery_penalty(ptr noundef readonly captures(none) %0) local_unnamed_addr #2 {
  %2 = getelementptr inbounds nuw i8, ptr %0, i64 32
  %3 = load i64, ptr %2, align 8
  %4 = inttoptr i64 %3 to ptr
  %5 = load i64, ptr %4, align 8
  %6 = getelementptr inbounds nuw i8, ptr %0, i64 48
  %7 = load i64, ptr %6, align 8
  %8 = inttoptr i64 %7 to ptr
  %9 = load i64, ptr %8, align 8
  %10 = getelementptr inbounds nuw i8, ptr %0, i64 64
  %11 = load i64, ptr %10, align 8
  %12 = xor i64 %9, %5
  br label %13

13:                                               ; preds = %13, %1
  %indvars.iv.i.i = phi i64 [ 0, %1 ], [ %indvars.iv.next.i.i, %13 ]
  %.067.i.i = phi i32 [ 0, %1 ], [ %17, %13 ]
  %14 = lshr i64 %12, %indvars.iv.i.i
  %15 = trunc i64 %14 to i32
  %16 = and i32 %15, 1
  %17 = add i32 %16, %.067.i.i
  %indvars.iv.next.i.i = add nuw nsw i64 %indvars.iv.i.i, 1
  %exitcond.not.i.i = icmp eq i64 %indvars.iv.next.i.i, 64
  br i1 %exitcond.not.i.i, label %hemdist.exit, label %13, !llvm.loop !8

hemdist.exit:                                     ; preds = %13
  %18 = inttoptr i64 %11 to ptr
  %19 = sitofp i32 %17 to float
  store float %19, ptr %18, align 4
  ret i64 %11
}